target datalayout = "e-m:e-p270:32:32-p271:32:32-p272:64:64-i64:64-i128:128-f80:128-n8:16:32:64-S128"
target triple = "x86_64-pc-linux-gnu"

%class.colvarvalue = type { i32, double, %"class.colvarmodule::rvector", %"class.colvarmodule::quaternion", %"class.colvarmodule::vector1d", %"class.std::vector.0", %"class.std::vector.5", %"class.std::vector.5" }
%"class.colvarmodule::rvector" = type { double, double, double }
%"class.colvarmodule::quaternion" = type { double, double, double, double }
%"class.colvarmodule::vector1d" = type { %"class.std::vector" }
%"class.std::vector" = type { %"struct.std::_Vector_base" }
%"struct.std::_Vector_base" = type { %"struct.std::_Vector_base<double, std::allocator<double>>::_Vector_impl" }
%"struct.std::_Vector_base<double, std::allocator<double>>::_Vector_impl" = type { %"struct.std::_Vector_base<double, std::allocator<double>>::_Vector_impl_data" }
%"struct.std::_Vector_base<double, std::allocator<double>>::_Vector_impl_data" = type { ptr, ptr, ptr }
%"class.std::vector.0" = type { %"struct.std::_Vector_base.1" }
%"struct.std::_Vector_base.1" = type { %"struct.std::_Vector_base<colvarvalue::Type, std::allocator<colvarvalue::Type>>::_Vector_impl" }
%"struct.std::_Vector_base<colvarvalue::Type, std::allocator<colvarvalue::Type>>::_Vector_impl" = type { %"struct.std::_Vector_base<colvarvalue::Type, std::allocator<colvarvalue::Type>>::_Vector_impl_data" }
%"struct.std::_Vector_base<colvarvalue::Type, std::allocator<colvarvalue::Type>>::_Vector_impl_data" = type { ptr, ptr, ptr }
%"class.std::vector.5" = type { %"struct.std::_Vector_base.6" }
%"struct.std::_Vector_base.6" = type { %"struct.std::_Vector_base<int, std::allocator<int>>::_Vector_impl" }
%"struct.std::_Vector_base<int, std::allocator<int>>::_Vector_impl" = type { %"struct.std::_Vector_base<int, std::allocator<int>>::_Vector_impl_data" }
%"struct.std::_Vector_base<int, std::allocator<int>>::_Vector_impl_data" = type { ptr, ptr, ptr }

; Function Attrs: mustprogress nounwind uwtable
define linkonce_odr noundef nonnull align 8 dereferenceable(8) ptr @_ZNSt6vectorIdSaIdEEixEm(ptr noundef nonnull align 8 dereferenceable(24) %0, i64 noundef %1) #2 comdat align 2 {
  %3 = alloca ptr, align 8
  %4 = alloca i64, align 8
  store ptr %0, ptr %3, align 8, !tbaa !51
  store i64 %1, ptr %4, align 8, !tbaa !37
  %5 = load ptr, ptr %3, align 8
  %6 = getelementptr inbounds nuw %"struct.std::_Vector_base", ptr %5, i32 0, i32 0
  %7 = getelementptr inbounds nuw %"struct.std::_Vector_base<double, std::allocator<double>>::_Vector_impl_data", ptr %6, i32 0, i32 0
  %8 = load ptr, ptr %7, align 8, !tbaa !53
  %9 = load i64, ptr %4, align 8, !tbaa !37
  %10 = getelementptr inbounds nuw double, ptr %8, i64 %9
  ret ptr %10
}

; Function Attrs: mustprogress nounwind uwtable
define linkonce_odr noundef i64 @_ZNKSt6vectorIdSaIdEE4sizeEv(ptr noundef nonnull align 8 dereferenceable(24) %0) #2 comdat align 2 {
  %2 = alloca ptr, align 8
  store ptr %0, ptr %2, align 8, !tbaa !51
  %3 = load ptr, ptr %2, align 8
  %4 = getelementptr inbounds nuw %"struct.std::_Vector_base", ptr %3, i32 0, i32 0
  %5 = getelementptr inbounds nuw %"struct.std::_Vector_base<double, std::allocator<double>>::_Vector_impl_data", ptr %4, i32 0, i32 1
  %6 = load ptr, ptr %5, align 8, !tbaa !54
  %7 = getelementptr inbounds nuw %"struct.std::_Vector_base", ptr %3, i32 0, i32 0
  %8 = getelementptr inbounds nuw %"struct.std::_Vector_base<double, std::allocator<double>>::_Vector_impl_data", ptr %7, i32 0, i32 0
  %9 = load ptr, ptr %8, align 8, !tbaa !53
  %10 = ptrtoint ptr %6 to i64
  %11 = ptrtoint ptr %9 to i64
  %12 = sub i64 %10, %11
  %13 = sdiv exact i64 %12, 8
  ret i64 %13
}

; Function Attrs: inlinehint mustprogress nounwind uwtable
define linkonce_odr noundef nonnull align 8 dereferenceable(8) ptr @_ZN12colvarmodule8vector1dIdEixEm(ptr noundef nonnull align 8 dereferenceable(24) %0, i64 noundef %1) #3 comdat align 2 {
  %3 = alloca ptr, align 8
  %4 = alloca i64, align 8
  store ptr %0, ptr %3, align 8, !tbaa !35
  store i64 %1, ptr %4, align 8, !tbaa !37
  %5 = load ptr, ptr %3, align 8
  %6 = getelementptr inbounds nuw %"class.colvarmodule::vector1d", ptr %5, i32 0, i32 0
  %7 = load i64, ptr %4, align 8, !tbaa !37
  %8 = call noundef nonnull align 8 dereferenceable(8) ptr @_ZNSt6vectorIdSaIdEEixEm(ptr noundef nonnull align 8 dereferenceable(24) %6, i64 noundef %7) #15
  ret ptr %8
}

; Function Attrs: inlinehint mustprogress nounwind uwtable
define linkonce_odr noundef i64 @_ZNK12colvarmodule8vector1dIdE4sizeEv(ptr noundef nonnull align 8 dereferenceable(24) %0) #3 comdat align 2 {
  %2 = alloca ptr, align 8
  store ptr %0, ptr %2, align 8, !tbaa !35
  %3 = load ptr, ptr %2, align 8
  %4 = getelementptr inbounds nuw %"class.colvarmodule::vector1d", ptr %3, i32 0, i32 0
  %5 = call noundef i64 @_ZNKSt6vectorIdSaIdEE4sizeEv(ptr noundef nonnull align 8 dereferenceable(24) %4) #15
  ret i64 %5
}

; Function Attrs: inlinehint mustprogress nounwind uwtable
define linkonce_odr noundef i32 @_ZNK11colvarvalue4typeEv(ptr noundef nonnull align 8 dereferenceable(168) %0) #3 comdat align 2 {
  %2 = alloca ptr, align 8
  store ptr %0, ptr %2, align 8, !tbaa !4
  %3 = load ptr, ptr %2, align 8
  %4 = getelementptr inbounds nuw %class.colvarvalue, ptr %3, i32 0, i32 0
  %5 = load i32, ptr %4, align 8, !tbaa !9
  ret i32 %5
}

; Function Attrs: mustprogress uwtable
define void @_ZN11colvarvalue8set_onesEd(ptr noundef nonnull align 8 dereferenceable(168) %0, double noundef %1) #0 align 2 {
  %3 = alloca ptr, align 8
  %4 = alloca double, align 8
  %5 = alloca i64, align 8
  store ptr %0, ptr %3, align 8, !tbaa !4
  store double %1, ptr %4, align 8, !tbaa !43
  %6 = load ptr, ptr %3, align 8
  call void @llvm.lifetime.start.p0(i64 8, ptr %5) #15
  %7 = call noundef i32 @_ZNK11colvarvalue4typeEv(ptr noundef nonnull align 8 dereferenceable(168) %6)
  switch i32 %7, label %50 [
    i32 1, label %8
    i32 2, label %11
    i32 3, label %11
    i32 4, label %11
    i32 5, label %21
    i32 6, label %21
    i32 7, label %34
    i32 0, label %49
  ]

8:                                                ; preds = %2
  %9 = load double, ptr %4, align 8, !tbaa !43
  %10 = getelementptr inbounds nuw %class.colvarvalue, ptr %6, i32 0, i32 1
  store double %9, ptr %10, align 8, !tbaa !30
  br label %51

11:                                               ; preds = %2, %2, %2
  %12 = load double, ptr %4, align 8, !tbaa !43
  %13 = getelementptr inbounds nuw %class.colvarvalue, ptr %6, i32 0, i32 2
  %14 = getelementptr inbounds nuw %"class.colvarmodule::rvector", ptr %13, i32 0, i32 0
  store double %12, ptr %14, align 8, !tbaa !166
  %15 = load double, ptr %4, align 8, !tbaa !43
  %16 = getelementptr inbounds nuw %class.colvarvalue, ptr %6, i32 0, i32 2
  %17 = getelementptr inbounds nuw %"class.colvarmodule::rvector", ptr %16, i32 0, i32 1
  store double %15, ptr %17, align 8, !tbaa !167
  %18 = load double, ptr %4, align 8, !tbaa !43
  %19 = getelementptr inbounds nuw %class.colvarvalue, ptr %6, i32 0, i32 2
  %20 = getelementptr inbounds nuw %"class.colvarmodule::rvector", ptr %19, i32 0, i32 2
  store double %18, ptr %20, align 8, !tbaa !168
  br label %51

21:                                               ; preds = %2, %2
  %22 = load double, ptr %4, align 8, !tbaa !43
  %23 = getelementptr inbounds nuw %class.colvarvalue, ptr %6, i32 0, i32 3
  %24 = getelementptr inbounds nuw %"class.colvarmodule::quaternion", ptr %23, i32 0, i32 0
  store double %22, ptr %24, align 8, !tbaa !169
  %25 = load double, ptr %4, align 8, !tbaa !43
  %26 = getelementptr inbounds nuw %class.colvarvalue, ptr %6, i32 0, i32 3
  %27 = getelementptr inbounds nuw %"class.colvarmodule::quaternion", ptr %26, i32 0, i32 1
  store double %25, ptr %27, align 8, !tbaa !170
  %28 = load double, ptr %4, align 8, !tbaa !43
  %29 = getelementptr inbounds nuw %class.colvarvalue, ptr %6, i32 0, i32 3
  %30 = getelementptr inbounds nuw %"class.colvarmodule::quaternion", ptr %29, i32 0, i32 2
  store double %28, ptr %30, align 8, !tbaa !171
  %31 = load double, ptr %4, align 8, !tbaa !43
  %32 = getelementptr inbounds nuw %class.colvarvalue, ptr %6, i32 0, i32 3
  %33 = getelementptr inbounds nuw %"class.colvarmodule::quaternion", ptr %32, i32 0, i32 3
  store double %31, ptr %33, align 8, !tbaa !172
  br label %51

34:                                               ; preds = %2
  store i64 0, ptr %5, align 8, !tbaa !37
  br label %35

35:                                               ; preds = %45, %34
  %36 = load i64, ptr %5, align 8, !tbaa !37
  %37 = getelementptr inbounds nuw %class.colvarvalue, ptr %6, i32 0, i32 4
  %38 = call noundef i64 @_ZNK12colvarmodule8vector1dIdE4sizeEv(ptr noundef nonnull align 8 dereferenceable(24) %37)
  %39 = icmp ult i64 %36, %38
  br i1 %39, label %40, label %48

40:                                               ; preds = %35
  %41 = load double, ptr %4, align 8, !tbaa !43
  %42 = getelementptr inbounds nuw %class.colvarvalue, ptr %6, i32 0, i32 4
  %43 = load i64, ptr %5, align 8, !tbaa !37
  %44 = call noundef nonnull align 8 dereferenceable(8) ptr @_ZN12colvarmodule8vector1dIdEixEm(ptr noundef nonnull align 8 dereferenceable(24) %42, i64 noundef %43)
  store double %41, ptr %44, align 8, !tbaa !43
  br label %45

45:                                               ; preds = %40
  %46 = load i64, ptr %5, align 8, !tbaa !37
  %47 = add i64 %46, 1
  store i64 %47, ptr %5, align 8, !tbaa !37
  br label %35, !llvm.loop !174

48:                                               ; preds = %35
  br label %51

49:                                               ; preds = %2
  br label %50

50:                                               ; preds = %2, %49
  call void @_ZNK11colvarvalue8undef_opEv(ptr noundef nonnull align 8 dereferenceable(168) %6)
  br label %51

51:                                               ; preds = %50, %48, %21, %11, %8
  call void @llvm.lifetime.end.p0(i64 8, ptr %5) #15
  ret void
}