; Function Attrs: mustprogress uwtable
define void @_ZN11colvarvalue8set_onesEd(ptr noundef nonnull align 8 captures(none) dereferenceable(168) %0, double noundef %1) local_unnamed_addr #1 align 2 {
  %3 = load i32, ptr %0, align 8, !tbaa !4
  switch i32 %3, label %25 [
    i32 1, label %12
    i32 2, label %14
    i32 3, label %14
    i32 4, label %14
    i32 5, label %18
    i32 6, label %18
    i32 7, label %.preheader
  ]

.preheader:                                       ; preds = %2
  %4 = getelementptr inbounds nuw i8, ptr %0, i64 72
  %5 = getelementptr inbounds nuw i8, ptr %0, i64 80
  %6 = load ptr, ptr %5, align 8, !tbaa !28
  %7 = load ptr, ptr %4, align 8, !tbaa !29
  %.not = icmp eq ptr %6, %7
  br i1 %.not, label %.loopexit, label %.lr.ph.preheader

.lr.ph.preheader:                                 ; preds = %.preheader
  %8 = ptrtoint ptr %6 to i64
  %9 = ptrtoint ptr %7 to i64
  %10 = sub i64 %8, %9
  %11 = ashr exact i64 %10, 3
  %umax = tail call i64 @llvm.umax.i64(i64 %11, i64 1)
  br label %.lr.ph

12:                                               ; preds = %2
  %13 = getelementptr inbounds nuw i8, ptr %0, i64 8
  store double %1, ptr %13, align 8, !tbaa !39
  br label %.loopexit

14:                                               ; preds = %2, %2, %2
  %15 = getelementptr inbounds nuw i8, ptr %0, i64 16
  store double %1, ptr %15, align 8, !tbaa !81
  %16 = getelementptr inbounds nuw i8, ptr %0, i64 24
  store double %1, ptr %16, align 8, !tbaa !82
  %17 = getelementptr inbounds nuw i8, ptr %0, i64 32
  store double %1, ptr %17, align 8, !tbaa !83
  br label %.loopexit

18:                                               ; preds = %2, %2
  %19 = getelementptr inbounds nuw i8, ptr %0, i64 40
  store double %1, ptr %19, align 8, !tbaa !84
  %20 = getelementptr inbounds nuw i8, ptr %0, i64 48
  store double %1, ptr %20, align 8, !tbaa !85
  %21 = getelementptr inbounds nuw i8, ptr %0, i64 56
  store double %1, ptr %21, align 8, !tbaa !86
  %22 = getelementptr inbounds nuw i8, ptr %0, i64 64
  store double %1, ptr %22, align 8, !tbaa !87
  br label %.loopexit

.lr.ph:                                           ; preds = %.lr.ph.preheader, %.lr.ph
  %.012 = phi i64 [ %24, %.lr.ph ], [ 0, %.lr.ph.preheader ]
  %23 = getelementptr inbounds nuw double, ptr %7, i64 %.012
  store double %1, ptr %23, align 8, !tbaa !31
  %24 = add nuw i64 %.012, 1
  %exitcond.not = icmp eq i64 %24, %umax
  br i1 %exitcond.not, label %.loopexit, label %.lr.ph, !llvm.loop !92

25:                                               ; preds = %2
  tail call void @_ZNK11colvarvalue8undef_opEv(ptr noundef nonnull align 8 dereferenceable(168) %0)
  br label %.loopexit

.loopexit:                                        ; preds = %.lr.ph, %.preheader, %25, %18, %14, %12
  ret void
}